; Function Attrs: mustprogress nofree norecurse nosync nounwind willreturn memory(read, inaccessiblemem: none) uwtable
define dso_local noundef i32 @_ZNK4llvm12IntEqClasses10findLeaderEj(ptr noundef nonnull readonly align 8 captures(none) dereferenceable(52) %0, i32 noundef %1) local_unnamed_addr #3 align 2 {
  %3 = load ptr, ptr %0, align 8
  br label %4

4:                                                ; preds = %4, %2
  %.0 = phi i32 [ %1, %2 ], [ %7, %4 ]
  %5 = zext i32 %.0 to i64
  %6 = getelementptr inbounds nuw i32, ptr %3, i64 %5
  %7 = load i32, ptr %6, align 4
  %.not = icmp eq i32 %.0, %7
  br i1 %.not, label %8, label %4, !llvm.loop !7

8:                                                ; preds = %4
  ret i32 %.0
}